target datalayout = "e-m:e-p270:32:32-p271:32:32-p272:64:64-i64:64-i128:128-f80:128-n8:16:32:64-S128"
target triple = "x86_64-pc-linux-gnu"

%"class.std::__cxx11::basic_string" = type { %"struct.std::__cxx11::basic_string<char>::_Alloc_hider", i64, %union.anon.0 }
%"struct.std::__cxx11::basic_string<char>::_Alloc_hider" = type { ptr }
%union.anon.0 = type { i64, [8 x i8] }

@.str = private unnamed_addr constant [68 x i8] c"NoriObject::addChild() is not implemented for objects of type '%s'!\00", align 1
@_ZTIN4nori13NoriExceptionE = linkonce_odr hidden constant { ptr, ptr, ptr } { ptr getelementptr inbounds (ptr, ptr @_ZTVN10__cxxabiv120__si_class_type_infoE, i64 2), ptr @_ZTSN4nori13NoriExceptionE, ptr @_ZTISt13runtime_error }, comdat, align 8

; Function Attrs: mustprogress uwtable
define hidden void @_ZN4nori10NoriObject8addChildEPS0_(ptr noundef nonnull align 8 dereferenceable(8) %0, ptr noundef %1) unnamed_addr #4 align 2 personality ptr @__gxx_personality_v0 {
  %3 = alloca ptr, align 8
  %4 = alloca ptr, align 8
  %5 = alloca %"class.std::__cxx11::basic_string", align 8
  %6 = alloca ptr, align 8
  %7 = alloca i32, align 4
  %8 = alloca i1, align 1
  store ptr %0, ptr %3, align 8
  store ptr %1, ptr %4, align 8
  %9 = load ptr, ptr %3, align 8
  store i1 true, ptr %8, align 1
  %10 = call ptr @__cxa_allocate_exception(i64 16) #3
  %11 = load ptr, ptr %9, align 8
  %12 = getelementptr inbounds ptr, ptr %11, i64 2
  %13 = load ptr, ptr %12, align 8
  %14 = invoke noundef i32 %13(ptr noundef nonnull align 8 dereferenceable(8) %9)
          to label %15 unwind label %18

15:                                               ; preds = %2
  invoke void @_ZN4nori10NoriObject13classTypeNameB5cxx11ENS0_10EClassTypeE(ptr dead_on_unwind writable sret(%"class.std::__cxx11::basic_string") align 8 %5, i32 noundef %14)
          to label %16 unwind label %18

16:                                               ; preds = %15
  invoke void @_ZN4nori13NoriExceptionC2IJNSt7__cxx1112basic_stringIcSt11char_traitsIcESaIcEEEEEEPKcDpRKT_(ptr noundef nonnull align 8 dereferenceable(16) %10, ptr noundef @.str, ptr noundef nonnull align 8 dereferenceable(32) %5)
          to label %17 unwind label %22

17:                                               ; preds = %16
  store i1 false, ptr %8, align 1
  invoke void @__cxa_throw(ptr %10, ptr @_ZTIN4nori13NoriExceptionE, ptr @_ZN4nori13NoriExceptionD2Ev) #14
          to label %35 unwind label %22

18:                                               ; preds = %15, %2
  %19 = landingpad { ptr, i32 }
          cleanup
  %20 = extractvalue { ptr, i32 } %19, 0
  store ptr %20, ptr %6, align 8
  %21 = extractvalue { ptr, i32 } %19, 1
  store i32 %21, ptr %7, align 4
  br label %26

22:                                               ; preds = %17, %16
  %23 = landingpad { ptr, i32 }
          cleanup
  %24 = extractvalue { ptr, i32 } %23, 0
  store ptr %24, ptr %6, align 8
  %25 = extractvalue { ptr, i32 } %23, 1
  store i32 %25, ptr %7, align 4
  call void @_ZNSt7__cxx1112basic_stringIcSt11char_traitsIcESaIcEED1Ev(ptr noundef nonnull align 8 dereferenceable(32) %5) #3
  br label %26

26:                                               ; preds = %22, %18
  %27 = load i1, ptr %8, align 1
  br i1 %27, label %28, label %29

28:                                               ; preds = %26
  call void @__cxa_free_exception(ptr %10) #3
  br label %29

29:                                               ; preds = %28, %26
  br label %30

30:                                               ; preds = %29
  %31 = load ptr, ptr %6, align 8
  %32 = load i32, ptr %7, align 4
  %33 = insertvalue { ptr, i32 } poison, ptr %31, 0
  %34 = insertvalue { ptr, i32 } %33, i32 %32, 1
  resume { ptr, i32 } %34

35:                                               ; preds = %17
  unreachable
}