; Function Attrs: mustprogress noreturn uwtable
define hidden void @_ZN4nori10NoriObject8addChildEPS0_(ptr noundef nonnull align 8 dereferenceable(8) %0, ptr nocapture readnone %1) unnamed_addr #3 align 2 personality ptr @__gxx_personality_v0 {
  %3 = alloca %"class.std::__cxx11::basic_string", align 8
  %4 = tail call ptr @__cxa_allocate_exception(i64 16) #17
  %5 = load ptr, ptr %0, align 8
  %6 = getelementptr inbounds i8, ptr %5, i64 16
  %7 = load ptr, ptr %6, align 8
  %8 = invoke noundef i32 %7(ptr noundef nonnull align 8 dereferenceable(8) %0)
          to label %9 unwind label %.thread

9:                                                ; preds = %2
  invoke void @_ZN4nori10NoriObject13classTypeNameB5cxx11ENS0_10EClassTypeE(ptr dead_on_unwind nonnull writable sret(%"class.std::__cxx11::basic_string") align 8 %3, i32 noundef %8)
          to label %10 unwind label %.thread

10:                                               ; preds = %9
  invoke void @_ZN4nori13NoriExceptionC2IJNSt7__cxx1112basic_stringIcSt11char_traitsIcESaIcEEEEEEPKcDpRKT_(ptr noundef nonnull align 8 dereferenceable(16) %4, ptr noundef nonnull @.str, ptr noundef nonnull align 8 dereferenceable(32) %3)
          to label %12 unwind label %.thread10

.thread10:                                        ; preds = %10
  %11 = landingpad { ptr, i32 }
          cleanup
  call void @_ZNSt7__cxx1112basic_stringIcSt11char_traitsIcESaIcEED1Ev(ptr noundef nonnull align 8 dereferenceable(32) %3) #17
  br label %16

12:                                               ; preds = %10
  invoke void @__cxa_throw(ptr nonnull %4, ptr nonnull @_ZTIN4nori13NoriExceptionE, ptr nonnull @_ZN4nori13NoriExceptionD2Ev) #18
          to label %18 unwind label %14

.thread:                                          ; preds = %2, %9
  %13 = landingpad { ptr, i32 }
          cleanup
  br label %16

14:                                               ; preds = %12
  %15 = landingpad { ptr, i32 }
          cleanup
  call void @_ZNSt7__cxx1112basic_stringIcSt11char_traitsIcESaIcEED1Ev(ptr noundef nonnull align 8 dereferenceable(32) %3) #17
  br label %17

16:                                               ; preds = %.thread10, %.thread
  %.pn9 = phi { ptr, i32 } [ %13, %.thread ], [ %11, %.thread10 ]
  call void @__cxa_free_exception(ptr %4) #17
  br label %17

17:                                               ; preds = %14, %16
  %.pn8 = phi { ptr, i32 } [ %15, %14 ], [ %.pn9, %16 ]
  resume { ptr, i32 } %.pn8

18:                                               ; preds = %12
  unreachable
}